target datalayout = "e-m:e-p270:32:32-p271:32:32-p272:64:64-i64:64-i128:128-f80:128-n8:16:32:64-S128"
target triple = "x86_64-unknown-linux-gnu"

%struct.TPCI200State = type { %struct.PCIDevice, %struct.IPackBus, %struct.MemoryRegion, %struct.MemoryRegion, %struct.MemoryRegion, %struct.MemoryRegion, %struct.MemoryRegion, %struct.MemoryRegion, [3 x i8], [4 x i8], i16, i8 }
%struct.PCIDevice = type { %struct.DeviceState, i8, i8, ptr, ptr, ptr, ptr, ptr, i32, %struct.PCIReqIDCache, [64 x i8], [7 x %struct.PCIIORegion], %struct.AddressSpace, %struct.MemoryRegion, %struct.MemoryRegion, ptr, ptr, [3 x ptr], i8, i8, i32, i8, i32, ptr, ptr, ptr, ptr, ptr, ptr, %struct.MemoryRegion, %struct.MemoryRegion, %struct.MemoryRegion, ptr, i8, i32, i8, %struct.PCIExpressDevice, ptr, ptr, i32, i8, %struct.MemoryRegion, i32, ptr, ptr, ptr, ptr, ptr, i32 }
%struct.DeviceState = type { %struct.Object, ptr, ptr, i8, i8, i64, ptr, i32, i8, ptr, %struct.NamedGPIOListHead, %struct.NamedClockListHead, %struct.BusStateHead, i32, i32, i32, %struct.ResettableState, ptr, %struct.MemReentrancyGuard }
%struct.Object = type { ptr, ptr, ptr, i32, ptr }
%struct.NamedGPIOListHead = type { ptr }
%struct.NamedClockListHead = type { ptr }
%struct.BusStateHead = type { ptr }
%struct.ResettableState = type { i32, i8, i8 }
%struct.MemReentrancyGuard = type { i8 }
%struct.PCIReqIDCache = type { ptr, i32 }
%struct.PCIIORegion = type { i64, i64, i8, ptr, ptr }
%struct.AddressSpace = type { %struct.rcu_head, ptr, ptr, ptr, i32, i32, ptr, %union.anon, %union.anon.0 }
%struct.rcu_head = type { ptr, ptr }
%union.anon = type { %struct.QTailQLink }
%struct.QTailQLink = type { ptr, ptr }
%union.anon.0 = type { %struct.QTailQLink }
%struct.PCIExpressDevice = type { i8, i8, i8, i16, %struct.PCIEAERLog, i16, i16, i16, %struct.PCIESriovPF, %struct.PCIESriovVF }
%struct.PCIEAERLog = type { i16, i16, ptr }
%struct.PCIESriovPF = type { i16, [7 x i8], ptr, ptr }
%struct.PCIESriovVF = type { ptr, i16 }
%struct.IPackBus = type { %struct.BusState, i8, i8, ptr }
%struct.BusState = type { %struct.Object, ptr, ptr, ptr, i32, i8, i8, i32, %union.BusChildHead, %struct.BusStateEntry, %struct.ResettableState }
%union.BusChildHead = type { %struct.QTailQLink }
%struct.BusStateEntry = type { ptr, ptr }
%struct.MemoryRegion = type { %struct.Object, i8, i8, i8, i8, i8, i8, i8, i8, i8, i8, ptr, ptr, ptr, ptr, ptr, ptr, i32, i128, i64, ptr, i64, i8, i8, i8, i8, i8, ptr, i64, i32, %union.anon.1, %union.anon.2, %union.anon.3, ptr, i32, ptr, ptr, i8 }
%union.anon.1 = type { %struct.QTailQLink }
%union.anon.2 = type { %struct.QTailQLink }
%union.anon.3 = type { %struct.QTailQLink }

; Function Attrs: nounwind sspstrong uwtable
define internal i64 @tpci200_read_cfg(ptr noundef %opaque, i64 noundef %addr, i32 noundef %size) #0 {
entry:
  %opaque.addr = alloca ptr, align 8
  %addr.addr = alloca i64, align 8
  %size.addr = alloca i32, align 4
  %s = alloca ptr, align 8
  %ret = alloca i8, align 1
  store ptr %opaque, ptr %opaque.addr, align 8
  store i64 %addr, ptr %addr.addr, align 8
  store i32 %size, ptr %size.addr, align 4
  %0 = load ptr, ptr %opaque.addr, align 8
  store ptr %0, ptr %s, align 8
  store i8 0, ptr %ret, align 1
  %1 = load i64, ptr %addr.addr, align 8
  %cmp = icmp ult i64 %1, 88
  br i1 %cmp, label %if.then, label %if.end

if.then:                                          ; preds = %entry
  %2 = load i64, ptr %addr.addr, align 8
  %arrayidx = getelementptr [88 x i8], ptr @local_config_regs, i64 0, i64 %2
  %3 = load i8, ptr %arrayidx, align 1
  store i8 %3, ptr %ret, align 1
  br label %if.end

if.end:                                           ; preds = %if.then, %entry
  %4 = load i64, ptr %addr.addr, align 8
  %cmp1 = icmp eq i64 %4, 43
  br i1 %cmp1, label %land.lhs.true, label %lor.lhs.false

land.lhs.true:                                    ; preds = %if.end
  %5 = load ptr, ptr %s, align 8
  %big_endian = getelementptr inbounds %struct.TPCI200State, ptr %5, i32 0, i32 8
  %arrayidx2 = getelementptr [3 x i8], ptr %big_endian, i64 0, i64 0
  %6 = load i8, ptr %arrayidx2, align 16
  %tobool = trunc i8 %6 to i1
  br i1 %tobool, label %if.then14, label %lor.lhs.false

lor.lhs.false:                                    ; preds = %land.lhs.true, %if.end
  %7 = load i64, ptr %addr.addr, align 8
  %cmp3 = icmp eq i64 %7, 47
  br i1 %cmp3, label %land.lhs.true4, label %lor.lhs.false8

land.lhs.true4:                                   ; preds = %lor.lhs.false
  %8 = load ptr, ptr %s, align 8
  %big_endian5 = getelementptr inbounds %struct.TPCI200State, ptr %8, i32 0, i32 8
  %arrayidx6 = getelementptr [3 x i8], ptr %big_endian5, i64 0, i64 1
  %9 = load i8, ptr %arrayidx6, align 1
  %tobool7 = trunc i8 %9 to i1
  br i1 %tobool7, label %if.then14, label %lor.lhs.false8

lor.lhs.false8:                                   ; preds = %land.lhs.true4, %lor.lhs.false
  %10 = load i64, ptr %addr.addr, align 8
  %cmp9 = icmp eq i64 %10, 51
  br i1 %cmp9, label %land.lhs.true10, label %if.end16

land.lhs.true10:                                  ; preds = %lor.lhs.false8
  %11 = load ptr, ptr %s, align 8
  %big_endian11 = getelementptr inbounds %struct.TPCI200State, ptr %11, i32 0, i32 8
  %arrayidx12 = getelementptr [3 x i8], ptr %big_endian11, i64 0, i64 2
  %12 = load i8, ptr %arrayidx12, align 2
  %tobool13 = trunc i8 %12 to i1
  br i1 %tobool13, label %if.then14, label %if.end16

if.then14:                                        ; preds = %land.lhs.true10, %land.lhs.true4, %land.lhs.true
  %13 = load i8, ptr %ret, align 1
  %conv = zext i8 %13 to i32
  %or = or i32 %conv, 1
  %conv15 = trunc i32 %or to i8
  store i8 %conv15, ptr %ret, align 1
  br label %if.end16

if.end16:                                         ; preds = %if.then14, %land.lhs.true10, %lor.lhs.false8
  br label %do.body

do.body:                                          ; preds = %if.end16
  br label %do.end

do.end:                                           ; preds = %do.body
  %14 = load i8, ptr %ret, align 1
  %conv17 = zext i8 %14 to i64
  ret i64 %conv17
}