; Function Attrs: mustprogress nofree norecurse nosync nounwind sspstrong willreturn memory(argmem: read) uwtable
define internal range(i64 0, 256) i64 @tpci200_read_cfg(ptr noundef readonly captures(none) %opaque, i64 noundef %addr, i32 %size) #2 {
entry:
  %cmp = icmp ult i64 %addr, 88
  br i1 %cmp, label %if.then, label %if.end

if.then:                                          ; preds = %entry
  %arrayidx = getelementptr [88 x i8], ptr @local_config_regs, i64 0, i64 %addr
  %0 = load i8, ptr %arrayidx, align 1
  br label %if.end

if.end:                                           ; preds = %if.then, %entry
  %ret.0 = phi i8 [ %0, %if.then ], [ 0, %entry ]
  switch i64 %addr, label %do.end [
    i64 43, label %land.lhs.true
    i64 47, label %land.lhs.true4
    i64 51, label %land.lhs.true10
  ]

land.lhs.true:                                    ; preds = %if.end
  %big_endian = getelementptr inbounds nuw i8, ptr %opaque, i64 4384
  %1 = load i8, ptr %big_endian, align 16
  %tobool = trunc i8 %1 to i1
  br i1 %tobool, label %if.then14, label %do.end

land.lhs.true4:                                   ; preds = %if.end
  %arrayidx6 = getelementptr i8, ptr %opaque, i64 4385
  %2 = load i8, ptr %arrayidx6, align 1
  %tobool7 = trunc i8 %2 to i1
  br i1 %tobool7, label %if.then14, label %do.end

land.lhs.true10:                                  ; preds = %if.end
  %arrayidx12 = getelementptr i8, ptr %opaque, i64 4386
  %3 = load i8, ptr %arrayidx12, align 2
  %tobool13 = trunc i8 %3 to i1
  br i1 %tobool13, label %if.then14, label %do.end

if.then14:                                        ; preds = %land.lhs.true10, %land.lhs.true4, %land.lhs.true
  %4 = or i8 %ret.0, 1
  br label %do.end

do.end:                                           ; preds = %land.lhs.true4, %land.lhs.true, %if.end, %if.then14, %land.lhs.true10
  %ret.1 = phi i8 [ %4, %if.then14 ], [ %ret.0, %land.lhs.true10 ], [ %ret.0, %if.end ], [ %ret.0, %land.lhs.true ], [ %ret.0, %land.lhs.true4 ]
  %conv17 = zext i8 %ret.1 to i64
  ret i64 %conv17
}